target datalayout = "e-m:e-p270:32:32-p271:32:32-p272:64:64-i64:64-i128:128-f80:128-n8:16:32:64-S128"
target triple = "x86_64-pc-linux-gnu"

%struct.jzfile = type { ptr, i32, i64, ptr, i64, i64, i8, i8, %struct.cencache, i32, ptr, ptr, i32, ptr, ptr, i32, ptr, i32, ptr, ptr, ptr, i32, i32, i64, i64 }
%struct.cencache = type { ptr, i64 }

@zfiles_lock = internal global ptr null, align 8
@zfiles = internal global ptr null, align 8
@.str.1 = private unnamed_addr constant [18 x i8] c"ZFILE_Open failed\00", align 1
@.str.2 = private unnamed_addr constant [18 x i8] c"zip file is empty\00", align 1
@.str.3 = private unnamed_addr constant [16 x i8] c"IO_Lseek failed\00", align 1

; Function Attrs: nounwind uwtable
define internal i32 @ZFILE_read(i32 noundef %0, ptr noundef %1, i32 noundef %2) #0 {
  %4 = alloca i32, align 4
  %5 = alloca ptr, align 8
  %6 = alloca i32, align 4
  store i32 %0, ptr %4, align 4
  store ptr %1, ptr %5, align 8
  store i32 %2, ptr %6, align 4
  %7 = load i32, ptr %4, align 4
  %8 = load ptr, ptr %5, align 8
  %9 = load i32, ptr %6, align 4
  %10 = sext i32 %9 to i64
  %11 = call i64 @read(i32 noundef %7, ptr noundef %8, i64 noundef %10)
  %12 = trunc i64 %11 to i32
  ret i32 %12
}

; Function Attrs: nounwind uwtable
define internal void @ZFILE_Close(i32 noundef %0) #0 {
  %2 = alloca i32, align 4
  store i32 %0, ptr %2, align 4
  %3 = load i32, ptr %2, align 4
  %4 = call i32 @close(i32 noundef %3)
  ret void
}

; Function Attrs: nounwind uwtable
define internal i32 @readFully(i32 noundef %0, ptr noundef %1, i64 noundef %2) #0 {
  %4 = alloca i32, align 4
  %5 = alloca i32, align 4
  %6 = alloca ptr, align 8
  %7 = alloca i64, align 8
  %8 = alloca ptr, align 8
  %9 = alloca i64, align 8
  %10 = alloca i32, align 4
  %11 = alloca i32, align 4
  store i32 %0, ptr %5, align 4
  store ptr %1, ptr %6, align 8
  store i64 %2, ptr %7, align 8
  %12 = load ptr, ptr %6, align 8
  store ptr %12, ptr %8, align 8
  br label %13

13:                                               ; preds = %52, %50, %3
  %14 = load i64, ptr %7, align 8
  %15 = icmp sgt i64 %14, 0
  br i1 %15, label %16, label %53

16:                                               ; preds = %13
  store i64 2147483647, ptr %9, align 8
  %17 = load i64, ptr %7, align 8
  %18 = load i64, ptr %9, align 8
  %19 = icmp slt i64 %17, %18
  br i1 %19, label %20, label %23

20:                                               ; preds = %16
  %21 = load i64, ptr %7, align 8
  %22 = trunc i64 %21 to i32
  br label %26

23:                                               ; preds = %16
  %24 = load i64, ptr %9, align 8
  %25 = trunc i64 %24 to i32
  br label %26

26:                                               ; preds = %23, %20
  %27 = phi i32 [ %22, %20 ], [ %25, %23 ]
  store i32 %27, ptr %10, align 4
  %28 = load i32, ptr %5, align 4
  %29 = load ptr, ptr %8, align 8
  %30 = load i32, ptr %10, align 4
  %31 = call i32 @ZFILE_read(i32 noundef %28, ptr noundef %29, i32 noundef %30)
  store i32 %31, ptr %11, align 4
  %32 = load i32, ptr %11, align 4
  %33 = icmp sgt i32 %32, 0
  br i1 %33, label %34, label %43

34:                                               ; preds = %26
  %35 = load i32, ptr %11, align 4
  %36 = load ptr, ptr %8, align 8
  %37 = sext i32 %35 to i64
  %38 = getelementptr inbounds i8, ptr %36, i64 %37
  store ptr %38, ptr %8, align 8
  %39 = load i32, ptr %11, align 4
  %40 = sext i32 %39 to i64
  %41 = load i64, ptr %7, align 8
  %42 = sub nsw i64 %41, %40
  store i64 %42, ptr %7, align 8
  br label %52

43:                                               ; preds = %26
  %44 = load i32, ptr %11, align 4
  %45 = icmp eq i32 %44, -1
  br i1 %45, label %46, label %51

46:                                               ; preds = %43
  %47 = call ptr @__errno_location() #13
  %48 = load i32, ptr %47, align 4
  %49 = icmp eq i32 %48, 4
  br i1 %49, label %50, label %51

50:                                               ; preds = %46
  br label %13, !llvm.loop !8

51:                                               ; preds = %46, %43
  store i32 -1, ptr %4, align 4
  br label %54

52:                                               ; preds = %34
  br label %13, !llvm.loop !8

53:                                               ; preds = %13
  store i32 0, ptr %4, align 4
  br label %54

54:                                               ; preds = %53, %51
  %55 = load i32, ptr %4, align 4
  ret i32 %55
}

; Function Attrs: nounwind uwtable
define internal ptr @allocZip(ptr noundef %0) #0 {
  %2 = alloca ptr, align 8
  %3 = alloca ptr, align 8
  %4 = alloca ptr, align 8
  store ptr %0, ptr %3, align 8
  %5 = call noalias ptr @calloc(i64 noundef 1, i64 noundef 192) #12
  store ptr %5, ptr %4, align 8
  %6 = icmp ne ptr %5, null
  br i1 %6, label %7, label %22

7:                                                ; preds = %1
  %8 = load ptr, ptr %3, align 8
  %9 = call noalias ptr @strdup(ptr noundef %8) #11
  %10 = load ptr, ptr %4, align 8
  %11 = getelementptr inbounds %struct.jzfile, ptr %10, i32 0, i32 0
  store ptr %9, ptr %11, align 8
  %12 = icmp ne ptr %9, null
  br i1 %12, label %13, label %22

13:                                               ; preds = %7
  %14 = call ptr @JVM_RawMonitorCreate()
  %15 = load ptr, ptr %4, align 8
  %16 = getelementptr inbounds %struct.jzfile, ptr %15, i32 0, i32 10
  store ptr %14, ptr %16, align 8
  %17 = icmp ne ptr %14, null
  br i1 %17, label %18, label %22

18:                                               ; preds = %13
  %19 = load ptr, ptr %4, align 8
  %20 = getelementptr inbounds %struct.jzfile, ptr %19, i32 0, i32 9
  store i32 -1, ptr %20, align 8
  %21 = load ptr, ptr %4, align 8
  store ptr %21, ptr %2, align 8
  br label %31

22:                                               ; preds = %13, %7, %1
  %23 = load ptr, ptr %4, align 8
  %24 = icmp ne ptr %23, null
  br i1 %24, label %25, label %30

25:                                               ; preds = %22
  %26 = load ptr, ptr %4, align 8
  %27 = getelementptr inbounds %struct.jzfile, ptr %26, i32 0, i32 0
  %28 = load ptr, ptr %27, align 8
  call void @free(ptr noundef %28) #11
  %29 = load ptr, ptr %4, align 8
  call void @free(ptr noundef %29) #11
  br label %30

30:                                               ; preds = %25, %22
  store ptr null, ptr %2, align 8
  br label %31

31:                                               ; preds = %30, %18
  %32 = load ptr, ptr %2, align 8
  ret ptr %32
}

; Function Attrs: nounwind uwtable
define hidden ptr @ZIP_Put_In_Cache0(ptr noundef %0, i32 noundef %1, ptr noundef %2, i64 noundef %3, i8 noundef zeroext %4) #0 {
  %6 = alloca ptr, align 8
  %7 = alloca ptr, align 8
  %8 = alloca i32, align 4
  %9 = alloca ptr, align 8
  %10 = alloca i64, align 8
  %11 = alloca i8, align 1
  %12 = alloca [256 x i8], align 16
  %13 = alloca i64, align 8
  %14 = alloca ptr, align 8
  store ptr %0, ptr %7, align 8
  store i32 %1, ptr %8, align 4
  store ptr %2, ptr %9, align 8
  store i64 %3, ptr %10, align 8
  store i8 %4, ptr %11, align 1
  %15 = load ptr, ptr %7, align 8
  %16 = call ptr @allocZip(ptr noundef %15)
  store ptr %16, ptr %14, align 8
  %17 = icmp eq ptr %16, null
  br i1 %17, label %18, label %19

18:                                               ; preds = %5
  store ptr null, ptr %6, align 8
  br label %122

19:                                               ; preds = %5
  %20 = load i8, ptr %11, align 1
  %21 = load ptr, ptr %14, align 8
  %22 = getelementptr inbounds %struct.jzfile, ptr %21, i32 0, i32 6
  store i8 %20, ptr %22, align 8
  %23 = load ptr, ptr %14, align 8
  %24 = getelementptr inbounds %struct.jzfile, ptr %23, i32 0, i32 1
  store i32 1, ptr %24, align 8
  %25 = load i64, ptr %10, align 8
  %26 = load ptr, ptr %14, align 8
  %27 = getelementptr inbounds %struct.jzfile, ptr %26, i32 0, i32 23
  store i64 %25, ptr %27, align 8
  %28 = load i32, ptr %8, align 4
  %29 = icmp eq i32 %28, -1
  br i1 %29, label %30, label %37

30:                                               ; preds = %19
  %31 = load ptr, ptr %9, align 8
  %32 = icmp ne ptr %31, null
  br i1 %32, label %33, label %35

33:                                               ; preds = %30
  %34 = load ptr, ptr %9, align 8
  store ptr @.str.1, ptr %34, align 8
  br label %35

35:                                               ; preds = %33, %30
  %36 = load ptr, ptr %14, align 8
  call void @freeZip(ptr noundef %36)
  store ptr null, ptr %6, align 8
  br label %122

37:                                               ; preds = %19
  %38 = load i32, ptr %8, align 4
  %39 = getelementptr inbounds [256 x i8], ptr %12, i64 0, i64 0
  %40 = call i32 @readFully(i32 noundef %38, ptr noundef %39, i64 noundef 4)
  %41 = icmp ne i32 %40, -1
  br i1 %41, label %42, label %71

42:                                               ; preds = %37
  %43 = getelementptr inbounds [256 x i8], ptr %12, i64 0, i64 0
  %44 = load i8, ptr %43, align 16
  %45 = sext i8 %44 to i32
  %46 = icmp eq i32 %45, 80
  %47 = zext i1 %46 to i32
  %48 = getelementptr inbounds [256 x i8], ptr %12, i64 0, i64 1
  %49 = load i8, ptr %48, align 1
  %50 = sext i8 %49 to i32
  %51 = icmp eq i32 %50, 75
  %52 = zext i1 %51 to i32
  %53 = and i32 %47, %52
  %54 = getelementptr inbounds [256 x i8], ptr %12, i64 0, i64 2
  %55 = load i8, ptr %54, align 2
  %56 = sext i8 %55 to i32
  %57 = icmp eq i32 %56, 3
  %58 = zext i1 %57 to i32
  %59 = and i32 %53, %58
  %60 = getelementptr inbounds [256 x i8], ptr %12, i64 0, i64 3
  %61 = load i8, ptr %60, align 1
  %62 = sext i8 %61 to i32
  %63 = icmp eq i32 %62, 4
  %64 = zext i1 %63 to i32
  %65 = and i32 %59, %64
  %66 = icmp ne i32 %65, 0
  %67 = select i1 %66, i32 1, i32 0
  %68 = trunc i32 %67 to i8
  %69 = load ptr, ptr %14, align 8
  %70 = getelementptr inbounds %struct.jzfile, ptr %69, i32 0, i32 7
  store i8 %68, ptr %70, align 1
  br label %71

71:                                               ; preds = %42, %37
  %72 = load i32, ptr %8, align 4
  %73 = call i64 @lseek64(i32 noundef %72, i64 noundef 0, i32 noundef 2) #11
  %74 = load ptr, ptr %14, align 8
  %75 = getelementptr inbounds %struct.jzfile, ptr %74, i32 0, i32 2
  store i64 %73, ptr %75, align 8
  store i64 %73, ptr %13, align 8
  %76 = load i64, ptr %13, align 8
  %77 = icmp sle i64 %76, 0
  br i1 %77, label %78, label %96

78:                                               ; preds = %71
  %79 = load i64, ptr %13, align 8
  %80 = icmp eq i64 %79, 0
  br i1 %80, label %81, label %87

81:                                               ; preds = %78
  %82 = load ptr, ptr %9, align 8
  %83 = icmp ne ptr %82, null
  br i1 %83, label %84, label %86

84:                                               ; preds = %81
  %85 = load ptr, ptr %9, align 8
  store ptr @.str.2, ptr %85, align 8
  br label %86

86:                                               ; preds = %84, %81
  br label %93

87:                                               ; preds = %78
  %88 = load ptr, ptr %9, align 8
  %89 = icmp ne ptr %88, null
  br i1 %89, label %90, label %92

90:                                               ; preds = %87
  %91 = load ptr, ptr %9, align 8
  store ptr @.str.3, ptr %91, align 8
  br label %92

92:                                               ; preds = %90, %87
  br label %93

93:                                               ; preds = %92, %86
  %94 = load i32, ptr %8, align 4
  call void @ZFILE_Close(i32 noundef %94)
  %95 = load ptr, ptr %14, align 8
  call void @freeZip(ptr noundef %95)
  store ptr null, ptr %6, align 8
  br label %122

96:                                               ; preds = %71
  %97 = load i32, ptr %8, align 4
  %98 = load ptr, ptr %14, align 8
  %99 = getelementptr inbounds %struct.jzfile, ptr %98, i32 0, i32 9
  store i32 %97, ptr %99, align 8
  %100 = load ptr, ptr %14, align 8
  %101 = call i64 @readCEN(ptr noundef %100, i32 noundef -1)
  %102 = icmp slt i64 %101, 0
  br i1 %102, label %103, label %113

103:                                              ; preds = %96
  %104 = load ptr, ptr %9, align 8
  %105 = icmp ne ptr %104, null
  br i1 %105, label %106, label %111

106:                                              ; preds = %103
  %107 = load ptr, ptr %14, align 8
  %108 = getelementptr inbounds %struct.jzfile, ptr %107, i32 0, i32 13
  %109 = load ptr, ptr %108, align 8
  %110 = load ptr, ptr %9, align 8
  store ptr %109, ptr %110, align 8
  br label %111

111:                                              ; preds = %106, %103
  %112 = load ptr, ptr %14, align 8
  call void @freeZip(ptr noundef %112)
  store ptr null, ptr %6, align 8
  br label %122

113:                                              ; preds = %96
  %114 = load ptr, ptr @zfiles_lock, align 8
  %115 = call i32 @JVM_RawMonitorEnter(ptr noundef %114)
  %116 = load ptr, ptr @zfiles, align 8
  %117 = load ptr, ptr %14, align 8
  %118 = getelementptr inbounds %struct.jzfile, ptr %117, i32 0, i32 18
  store ptr %116, ptr %118, align 8
  %119 = load ptr, ptr %14, align 8
  store ptr %119, ptr @zfiles, align 8
  %120 = load ptr, ptr @zfiles_lock, align 8
  call void @JVM_RawMonitorExit(ptr noundef %120)
  %121 = load ptr, ptr %14, align 8
  store ptr %121, ptr %6, align 8
  br label %122

122:                                              ; preds = %113, %111, %93, %35, %18
  %123 = load ptr, ptr %6, align 8
  ret ptr %123
}