; Function Attrs: nounwind uwtable
define hidden noundef ptr @ZIP_Put_In_Cache0(ptr nocapture noundef readonly %0, i32 noundef %1, ptr noundef writeonly %2, i64 noundef %3, i8 noundef zeroext %4) local_unnamed_addr #0 {
  %6 = alloca [256 x i8], align 16
  %7 = tail call noalias dereferenceable_or_null(192) ptr @calloc(i64 noundef 1, i64 noundef 192) #24
  %.not.i = icmp eq ptr %7, null
  br i1 %.not.i, label %allocZip.exit.thread, label %8

8:                                                ; preds = %5
  %9 = tail call noalias ptr @strdup(ptr noundef readonly %0) #21
  store ptr %9, ptr %7, align 8
  %.not10.i = icmp eq ptr %9, null
  br i1 %.not10.i, label %13, label %10

10:                                               ; preds = %8
  %11 = tail call ptr @JVM_RawMonitorCreate() #21
  %12 = getelementptr inbounds i8, ptr %7, i64 80
  store ptr %11, ptr %12, align 8
  %.not11.i = icmp eq ptr %11, null
  br i1 %.not11.i, label %13, label %14

13:                                               ; preds = %10, %8
  tail call void @free(ptr noundef %9) #21
  tail call void @free(ptr noundef nonnull %7) #21
  br label %allocZip.exit.thread

14:                                               ; preds = %10
  %15 = getelementptr inbounds i8, ptr %7, i64 72
  store i32 -1, ptr %15, align 8
  %16 = getelementptr inbounds i8, ptr %7, i64 48
  store i8 %4, ptr %16, align 8
  %17 = getelementptr inbounds i8, ptr %7, i64 8
  store i32 1, ptr %17, align 8
  %18 = getelementptr inbounds i8, ptr %7, i64 176
  store i64 %3, ptr %18, align 8
  %19 = icmp eq i32 %1, -1
  br i1 %19, label %20, label %.outer.split.i.preheader

20:                                               ; preds = %14
  %.not39 = icmp eq ptr %2, null
  br i1 %.not39, label %22, label %21

21:                                               ; preds = %20
  store ptr @.str.1, ptr %2, align 8
  br label %22

22:                                               ; preds = %21, %20
  tail call fastcc void @freeZip(ptr noundef nonnull %7)
  br label %allocZip.exit.thread

.outer.split.i.preheader:                         ; preds = %14, %.outer.i
  %23 = phi i64 [ %31, %.outer.i ], [ 4, %14 ]
  %.015.ph.i45 = phi i64 [ %29, %.outer.i ], [ 4, %14 ]
  %.016.ph.i44 = phi ptr [ %28, %.outer.i ], [ %6, %14 ]
  br label %.outer.split.i

.outer.split.i:                                   ; preds = %.outer.split.i.preheader, %34
  %24 = call i64 @read(i32 noundef %1, ptr noundef %.016.ph.i44, i64 noundef %23) #21
  %25 = trunc i64 %24 to i32
  %26 = icmp sgt i32 %25, 0
  br i1 %26, label %.outer.i, label %32

.outer.i:                                         ; preds = %.outer.split.i
  %27 = and i64 %24, 2147483647
  %28 = getelementptr inbounds i8, ptr %.016.ph.i44, i64 %27
  %29 = sub nsw i64 %.015.ph.i45, %27
  %30 = icmp sgt i64 %29, 0
  %31 = tail call i64 @llvm.umin.i64(i64 %29, i64 2147483647)
  br i1 %30, label %.outer.split.i.preheader, label %readFully.exit, !llvm.loop !8

32:                                               ; preds = %.outer.split.i
  %33 = icmp eq i32 %25, -1
  br i1 %33, label %34, label %readFully.exit.thread

34:                                               ; preds = %32
  %35 = tail call ptr @__errno_location() #22
  %36 = load i32, ptr %35, align 4
  %37 = icmp eq i32 %36, 4
  br i1 %37, label %.outer.split.i, label %readFully.exit.thread, !llvm.loop !8

readFully.exit:                                   ; preds = %.outer.i
  %38 = load i32, ptr %6, align 16
  %39 = icmp eq i32 %38, 67324752
  %40 = zext i1 %39 to i8
  %41 = getelementptr inbounds i8, ptr %7, i64 49
  store i8 %40, ptr %41, align 1
  br label %readFully.exit.thread

readFully.exit.thread:                            ; preds = %34, %32, %readFully.exit
  %42 = tail call i64 @lseek64(i32 noundef %1, i64 noundef 0, i32 noundef 2) #21
  %43 = getelementptr inbounds i8, ptr %7, i64 16
  store i64 %42, ptr %43, align 8
  %44 = icmp slt i64 %42, 1
  br i1 %44, label %45, label %49

45:                                               ; preds = %readFully.exit.thread
  %.not38 = icmp eq ptr %2, null
  br i1 %.not38, label %47, label %.sink.split

.sink.split:                                      ; preds = %45
  %46 = icmp eq i64 %42, 0
  %.str.2..str.3 = select i1 %46, ptr @.str.2, ptr @.str.3
  store ptr %.str.2..str.3, ptr %2, align 8
  br label %47

47:                                               ; preds = %45, %.sink.split
  %48 = tail call i32 @close(i32 noundef %1) #21
  tail call fastcc void @freeZip(ptr noundef nonnull %7)
  br label %allocZip.exit.thread

49:                                               ; preds = %readFully.exit.thread
  store i32 %1, ptr %15, align 8
  %50 = tail call fastcc i64 @readCEN(ptr noundef nonnull %7, i32 noundef -1)
  %51 = icmp slt i64 %50, 0
  br i1 %51, label %52, label %57

52:                                               ; preds = %49
  %.not36 = icmp eq ptr %2, null
  br i1 %.not36, label %56, label %53

53:                                               ; preds = %52
  %54 = getelementptr inbounds i8, ptr %7, i64 104
  %55 = load ptr, ptr %54, align 8
  store ptr %55, ptr %2, align 8
  br label %56

56:                                               ; preds = %53, %52
  tail call fastcc void @freeZip(ptr noundef nonnull %7)
  br label %allocZip.exit.thread

57:                                               ; preds = %49
  %58 = load ptr, ptr @zfiles_lock, align 8
  %59 = tail call i32 @JVM_RawMonitorEnter(ptr noundef %58) #21
  %60 = load ptr, ptr @zfiles, align 8
  %61 = getelementptr inbounds i8, ptr %7, i64 144
  store ptr %60, ptr %61, align 8
  store ptr %7, ptr @zfiles, align 8
  %62 = load ptr, ptr @zfiles_lock, align 8
  tail call void @JVM_RawMonitorExit(ptr noundef %62) #21
  br label %allocZip.exit.thread

allocZip.exit.thread:                             ; preds = %13, %5, %57, %56, %47, %22
  %.0 = phi ptr [ null, %22 ], [ null, %47 ], [ null, %56 ], [ %7, %57 ], [ null, %5 ], [ null, %13 ]
  ret ptr %.0
}